; ModuleID = '14/18.c'
source_filename = "14/18.c"
target datalayout = "e-m:e-p270:32:32-p271:32:32-p272:64:64-i64:64-f80:128-n8:16:32:64-S128"
target triple = "x86_64-pc-linux-gnu"

%struct.student = type { i32, i32, i32, i32, i32, %struct.student* }

@.str = private unnamed_addr constant [9 x i8] c"%d %d %d\00", align 1
@n = common dso_local global i32 0, align 4
@.str.1 = private unnamed_addr constant [7 x i8] c"%d %d\0A\00", align 1
@.str.2 = private unnamed_addr constant [3 x i8] c"%d\00", align 1

; Function Attrs: noinline nounwind uwtable
define dso_local %struct.student* @creat() #0 {
  %1 = alloca i32, align 4
  %2 = alloca %struct.student*, align 8
  %3 = alloca %struct.student*, align 8
  %4 = alloca %struct.student*, align 8
  store i32 1, i32* %1, align 4
  %5 = call noalias i8* @malloc(i64 100) #3
  %6 = bitcast i8* %5 to %struct.student*
  store %struct.student* %6, %struct.student** %4, align 8
  store %struct.student* %6, %struct.student** %3, align 8
  %7 = load %struct.student*, %struct.student** %3, align 8
  %8 = getelementptr inbounds %struct.student, %struct.student* %7, i32 0, i32 0
  %9 = load %struct.student*, %struct.student** %3, align 8
  %10 = getelementptr inbounds %struct.student, %struct.student* %9, i32 0, i32 1
  %11 = load %struct.student*, %struct.student** %3, align 8
  %12 = getelementptr inbounds %struct.student, %struct.student* %11, i32 0, i32 2
  %13 = call i32 (i8*, ...) @__isoc99_scanf(i8* getelementptr inbounds ([9 x i8], [9 x i8]* @.str, i64 0, i64 0), i32* %8, i32* %10, i32* %12)
  %14 = load %struct.student*, %struct.student** %3, align 8
  store %struct.student* %14, %struct.student** %2, align 8
  br label %15

15:                                               ; preds = %36, %0
  %16 = load %struct.student*, %struct.student** %3, align 8
  store %struct.student* %16, %struct.student** %4, align 8
  %17 = load i32, i32* %1, align 4
  %18 = load i32, i32* @n, align 4
  %19 = icmp eq i32 %17, %18
  br i1 %19, label %20, label %21

20:                                               ; preds = %15
  br label %37

21:                                               ; preds = %15
  %22 = call noalias i8* @malloc(i64 100) #3
  %23 = bitcast i8* %22 to %struct.student*
  store %struct.student* %23, %struct.student** %3, align 8
  %24 = load %struct.student*, %struct.student** %3, align 8
  %25 = getelementptr inbounds %struct.student, %struct.student* %24, i32 0, i32 0
  %26 = load %struct.student*, %struct.student** %3, align 8
  %27 = getelementptr inbounds %struct.student, %struct.student* %26, i32 0, i32 1
  %28 = load %struct.student*, %struct.student** %3, align 8
  %29 = getelementptr inbounds %struct.student, %struct.student* %28, i32 0, i32 2
  %30 = call i32 (i8*, ...) @__isoc99_scanf(i8* getelementptr inbounds ([9 x i8], [9 x i8]* @.str, i64 0, i64 0), i32* %25, i32* %27, i32* %29)
  %31 = load %struct.student*, %struct.student** %3, align 8
  %32 = load %struct.student*, %struct.student** %4, align 8
  %33 = getelementptr inbounds %struct.student, %struct.student* %32, i32 0, i32 5
  store %struct.student* %31, %struct.student** %33, align 8
  %34 = load i32, i32* %1, align 4
  %35 = add nsw i32 %34, 1
  store i32 %35, i32* %1, align 4
  br label %36

36:                                               ; preds = %21
  br i1 true, label %15, label %37

37:                                               ; preds = %36, %20
  %38 = load %struct.student*, %struct.student** %4, align 8
  %39 = getelementptr inbounds %struct.student, %struct.student* %38, i32 0, i32 5
  store %struct.student* null, %struct.student** %39, align 8
  %40 = load %struct.student*, %struct.student** %2, align 8
  ret %struct.student* %40
}

; Function Attrs: nounwind
declare dso_local noalias i8* @malloc(i64) #1

declare dso_local i32 @__isoc99_scanf(i8*, ...) #2

; Function Attrs: noinline nounwind uwtable
define dso_local void @count(%struct.student* %0) #0 {
  %2 = alloca %struct.student*, align 8
  %3 = alloca i32, align 4
  %4 = alloca %struct.student*, align 8
  store %struct.student* %0, %struct.student** %2, align 8
  store i32 0, i32* %3, align 4
  store i32 1, i32* @n, align 4
  %5 = load %struct.student*, %struct.student** %2, align 8
  store %struct.student* %5, %struct.student** %4, align 8
  br label %6

6:                                                ; preds = %35, %1
  %7 = load %struct.student*, %struct.student** %4, align 8
  %8 = getelementptr inbounds %struct.student, %struct.student* %7, i32 0, i32 1
  %9 = load i32, i32* %8, align 4
  %10 = load %struct.student*, %struct.student** %4, align 8
  %11 = getelementptr inbounds %struct.student, %struct.student* %10, i32 0, i32 2
  %12 = load i32, i32* %11, align 8
  %13 = add nsw i32 %9, %12
  %14 = load %struct.student*, %struct.student** %4, align 8
  %15 = getelementptr inbounds %struct.student, %struct.student* %14, i32 0, i32 3
  store i32 %13, i32* %15, align 4
  %16 = load i32, i32* %3, align 4
  %17 = load %struct.student*, %struct.student** %4, align 8
  %18 = getelementptr inbounds %struct.student, %struct.student* %17, i32 0, i32 3
  %19 = load i32, i32* %18, align 4
  %20 = icmp slt i32 %16, %19
  br i1 %20, label %21, label %25

21:                                               ; preds = %6
  %22 = load %struct.student*, %struct.student** %4, align 8
  %23 = getelementptr inbounds %struct.student, %struct.student* %22, i32 0, i32 3
  %24 = load i32, i32* %23, align 4
  store i32 %24, i32* %3, align 4
  br label %25

25:                                               ; preds = %21, %6
  %26 = load %struct.student*, %struct.student** %4, align 8
  %27 = getelementptr inbounds %struct.student, %struct.student* %26, i32 0, i32 5
  %28 = load %struct.student*, %struct.student** %27, align 8
  %29 = icmp eq %struct.student* %28, null
  br i1 %29, label %30, label %31

30:                                               ; preds = %25
  br label %36

31:                                               ; preds = %25
  %32 = load %struct.student*, %struct.student** %4, align 8
  %33 = getelementptr inbounds %struct.student, %struct.student* %32, i32 0, i32 5
  %34 = load %struct.student*, %struct.student** %33, align 8
  store %struct.student* %34, %struct.student** %4, align 8
  br label %35

35:                                               ; preds = %31
  br i1 true, label %6, label %36

36:                                               ; preds = %35, %30
  %37 = load %struct.student*, %struct.student** %2, align 8
  store %struct.student* %37, %struct.student** %4, align 8
  br label %38

38:                                               ; preds = %68, %36
  %39 = load %struct.student*, %struct.student** %4, align 8
  %40 = getelementptr inbounds %struct.student, %struct.student* %39, i32 0, i32 3
  %41 = load i32, i32* %40, align 4
  %42 = load i32, i32* %3, align 4
  %43 = icmp eq i32 %41, %42
  br i1 %43, label %44, label %50

44:                                               ; preds = %38
  %45 = load i32, i32* @n, align 4
  %46 = load %struct.student*, %struct.student** %4, align 8
  %47 = getelementptr inbounds %struct.student, %struct.student* %46, i32 0, i32 4
  store i32 %45, i32* %47, align 8
  %48 = load i32, i32* @n, align 4
  %49 = add nsw i32 %48, 1
  store i32 %49, i32* @n, align 4
  br label %50

50:                                               ; preds = %44, %38
  %51 = load i32, i32* @n, align 4
  %52 = icmp sgt i32 %51, 3
  br i1 %52, label %53, label %54

53:                                               ; preds = %50
  br label %69

54:                                               ; preds = %50
  %55 = load %struct.student*, %struct.student** %4, align 8
  %56 = getelementptr inbounds %struct.student, %struct.student* %55, i32 0, i32 5
  %57 = load %struct.student*, %struct.student** %56, align 8
  %58 = icmp eq %struct.student* %57, null
  br i1 %58, label %59, label %63

59:                                               ; preds = %54
  %60 = load %struct.student*, %struct.student** %2, align 8
  store %struct.student* %60, %struct.student** %4, align 8
  %61 = load i32, i32* %3, align 4
  %62 = add nsw i32 %61, -1
  store i32 %62, i32* %3, align 4
  br label %67

63:                                               ; preds = %54
  %64 = load %struct.student*, %struct.student** %4, align 8
  %65 = getelementptr inbounds %struct.student, %struct.student* %64, i32 0, i32 5
  %66 = load %struct.student*, %struct.student** %65, align 8
  store %struct.student* %66, %struct.student** %4, align 8
  br label %67

67:                                               ; preds = %63, %59
  br label %68

68:                                               ; preds = %67
  br i1 true, label %38, label %69

69:                                               ; preds = %68, %53
  ret void
}

; Function Attrs: noinline nounwind uwtable
define dso_local void @print(%struct.student* %0) #0 {
  %2 = alloca %struct.student*, align 8
  %3 = alloca %struct.student*, align 8
  store %struct.student* %0, %struct.student** %2, align 8
  store i32 1, i32* @n, align 4
  %4 = load %struct.student*, %struct.student** %2, align 8
  store %struct.student* %4, %struct.student** %3, align 8
  br label %5

5:                                                ; preds = %37, %1
  %6 = load %struct.student*, %struct.student** %3, align 8
  %7 = getelementptr inbounds %struct.student, %struct.student* %6, i32 0, i32 4
  %8 = load i32, i32* %7, align 8
  %9 = load i32, i32* @n, align 4
  %10 = icmp eq i32 %8, %9
  br i1 %10, label %11, label %21

11:                                               ; preds = %5
  %12 = load %struct.student*, %struct.student** %3, align 8
  %13 = getelementptr inbounds %struct.student, %struct.student* %12, i32 0, i32 0
  %14 = load i32, i32* %13, align 8
  %15 = load %struct.student*, %struct.student** %3, align 8
  %16 = getelementptr inbounds %struct.student, %struct.student* %15, i32 0, i32 3
  %17 = load i32, i32* %16, align 4
  %18 = call i32 (i8*, ...) @printf(i8* getelementptr inbounds ([7 x i8], [7 x i8]* @.str.1, i64 0, i64 0), i32 %14, i32 %17)
  %19 = load i32, i32* @n, align 4
  %20 = add nsw i32 %19, 1
  store i32 %20, i32* @n, align 4
  br label %21

21:                                               ; preds = %11, %5
  %22 = load i32, i32* @n, align 4
  %23 = icmp sgt i32 %22, 3
  br i1 %23, label %24, label %25

24:                                               ; preds = %21
  br label %38

25:                                               ; preds = %21
  %26 = load %struct.student*, %struct.student** %3, align 8
  %27 = getelementptr inbounds %struct.student, %struct.student* %26, i32 0, i32 5
  %28 = load %struct.student*, %struct.student** %27, align 8
  %29 = icmp eq %struct.student* %28, null
  br i1 %29, label %30, label %32

30:                                               ; preds = %25
  %31 = load %struct.student*, %struct.student** %2, align 8
  store %struct.student* %31, %struct.student** %3, align 8
  br label %36

32:                                               ; preds = %25
  %33 = load %struct.student*, %struct.student** %3, align 8
  %34 = getelementptr inbounds %struct.student, %struct.student* %33, i32 0, i32 5
  %35 = load %struct.student*, %struct.student** %34, align 8
  store %struct.student* %35, %struct.student** %3, align 8
  br label %36

36:                                               ; preds = %32, %30
  br label %37

37:                                               ; preds = %36
  br i1 true, label %5, label %38

38:                                               ; preds = %37, %24
  ret void
}

declare dso_local i32 @printf(i8*, ...) #2

; Function Attrs: noinline nounwind uwtable
define dso_local void @main() #0 {
  %1 = alloca %struct.student*, align 8
  %2 = call i32 (i8*, ...) @__isoc99_scanf(i8* getelementptr inbounds ([3 x i8], [3 x i8]* @.str.2, i64 0, i64 0), i32* @n)
  %3 = call %struct.student* @creat()
  store %struct.student* %3, %struct.student** %1, align 8
  %4 = load %struct.student*, %struct.student** %1, align 8
  call void @count(%struct.student* %4)
  %5 = load %struct.student*, %struct.student** %1, align 8
  call void @print(%struct.student* %5)
  ret void
}


!llvm.module.flags = !{!0}
!llvm.ident = !{!1}

!0 = !{i32 1, !"wchar_size", i32 4}
!1 = !{!"clang version 10.0.0-4ubuntu1 "}
